target datalayout = "e-m:e-p270:32:32-p271:32:32-p272:64:64-i64:64-i128:128-f80:128-n8:16:32:64-S128"
target triple = "x86_64-pc-linux-gnu"

%"class.std::__cxx11::basic_string" = type { %"struct.std::__cxx11::basic_string<char>::_Alloc_hider", i64, %union.anon }
%"struct.std::__cxx11::basic_string<char>::_Alloc_hider" = type { ptr }
%union.anon = type { i64, [8 x i8] }

@.str.2 = private unnamed_addr constant [106 x i8] c"generated/home/dtcxzyw/WorkSpace/Projects/compilers/llvm-opt-benchmark/bench/faiss/faiss/faiss/IVFlib.cpp\00", align 1
@_ZTIN5faiss14FaissExceptionE = external constant ptr
@.str.3 = private unnamed_addr constant [19 x i8] c"Error: '%s' failed\00", align 1
@.str.9 = private unnamed_addr constant [4 x i8] c"ivf\00", align 1
@__PRETTY_FUNCTION__._ZN5faiss6ivflib17extract_index_ivfEPKNS_5IndexE = private unnamed_addr constant [64 x i8] c"const IndexIVF *faiss::ivflib::extract_index_ivf(const Index *)\00", align 1

; Function Attrs: mustprogress uwtable
define noundef ptr @_ZN5faiss6ivflib17extract_index_ivfEPKNS_5IndexE(ptr noundef %0) #4 personality ptr @__gxx_personality_v0 {
  %2 = alloca ptr, align 8
  %3 = alloca ptr, align 8
  %4 = alloca %"class.std::__cxx11::basic_string", align 8
  %5 = alloca i32, align 4
  %6 = alloca ptr, align 8
  %7 = alloca i32, align 4
  store ptr %0, ptr %2, align 8
  %8 = load ptr, ptr %2, align 8
  %9 = call noundef ptr @_ZN5faiss6ivflib21try_extract_index_ivfEPKNS_5IndexE(ptr noundef %8)
  store ptr %9, ptr %3, align 8
  br label %10

10:                                               ; preds = %1
  %11 = load ptr, ptr %3, align 8
  %12 = icmp ne ptr %11, null
  br i1 %12, label %36, label %13

13:                                               ; preds = %10
  br label %14

14:                                               ; preds = %13
  call void @_ZNSt7__cxx1112basic_stringIcSt11char_traitsIcESaIcEEC1Ev(ptr noundef nonnull align 8 dereferenceable(32) %4) #3
  %15 = call i32 (ptr, i64, ptr, ...) @snprintf(ptr noundef null, i64 noundef 0, ptr noundef @.str.3, ptr noundef @.str.9) #3
  store i32 %15, ptr %5, align 4
  %16 = load i32, ptr %5, align 4
  %17 = add nsw i32 %16, 1
  %18 = sext i32 %17 to i64
  invoke void @_ZNSt7__cxx1112basic_stringIcSt11char_traitsIcESaIcEE6resizeEm(ptr noundef nonnull align 8 dereferenceable(32) %4, i64 noundef %18)
          to label %19 unwind label %26

19:                                               ; preds = %14
  %20 = invoke noundef nonnull align 1 dereferenceable(1) ptr @_ZNSt7__cxx1112basic_stringIcSt11char_traitsIcESaIcEEixEm(ptr noundef nonnull align 8 dereferenceable(32) %4, i64 noundef 0)
          to label %21 unwind label %26

21:                                               ; preds = %19
  %22 = call noundef i64 @_ZNKSt7__cxx1112basic_stringIcSt11char_traitsIcESaIcEE4sizeEv(ptr noundef nonnull align 8 dereferenceable(32) %4) #3
  %23 = call i32 (ptr, i64, ptr, ...) @snprintf(ptr noundef %20, i64 noundef %22, ptr noundef @.str.3, ptr noundef @.str.9) #3
  %24 = call ptr @__cxa_allocate_exception(i64 40) #3
  invoke void @_ZN5faiss14FaissExceptionC1ERKNSt7__cxx1112basic_stringIcSt11char_traitsIcESaIcEEEPKcSA_i(ptr noundef nonnull align 8 dereferenceable(40) %24, ptr noundef nonnull align 8 dereferenceable(32) %4, ptr noundef @__PRETTY_FUNCTION__._ZN5faiss6ivflib17extract_index_ivfEPKNS_5IndexE, ptr noundef @.str.2, i32 noundef 93)
          to label %25 unwind label %30

25:                                               ; preds = %21
  invoke void @__cxa_throw(ptr %24, ptr @_ZTIN5faiss14FaissExceptionE, ptr @_ZN5faiss14FaissExceptionD2Ev) #16
          to label %44 unwind label %26

26:                                               ; preds = %25, %19, %14
  %27 = landingpad { ptr, i32 }
          cleanup
  %28 = extractvalue { ptr, i32 } %27, 0
  store ptr %28, ptr %6, align 8
  %29 = extractvalue { ptr, i32 } %27, 1
  store i32 %29, ptr %7, align 4
  br label %34

30:                                               ; preds = %21
  %31 = landingpad { ptr, i32 }
          cleanup
  %32 = extractvalue { ptr, i32 } %31, 0
  store ptr %32, ptr %6, align 8
  %33 = extractvalue { ptr, i32 } %31, 1
  store i32 %33, ptr %7, align 4
  call void @__cxa_free_exception(ptr %24) #3
  br label %34

34:                                               ; preds = %30, %26
  call void @_ZNSt7__cxx1112basic_stringIcSt11char_traitsIcESaIcEED1Ev(ptr noundef nonnull align 8 dereferenceable(32) %4) #3
  br label %39

35:                                               ; No predecessors!
  br label %36

36:                                               ; preds = %35, %10
  br label %37

37:                                               ; preds = %36
  %38 = load ptr, ptr %3, align 8
  ret ptr %38

39:                                               ; preds = %34
  %40 = load ptr, ptr %6, align 8
  %41 = load i32, ptr %7, align 4
  %42 = insertvalue { ptr, i32 } poison, ptr %40, 0
  %43 = insertvalue { ptr, i32 } %42, i32 %41, 1
  resume { ptr, i32 } %43

44:                                               ; preds = %25
  unreachable
}