; Function Attrs: mustprogress uwtable
define noundef ptr @_ZN5faiss6ivflib17extract_index_ivfEPKNS_5IndexE(ptr noundef readonly %0) local_unnamed_addr #3 personality ptr @__gxx_personality_v0 {
  %2 = alloca %"class.std::__cxx11::basic_string", align 8
  %3 = tail call noundef ptr @_ZN5faiss6ivflib21try_extract_index_ivfEPKNS_5IndexE(ptr noundef %0)
  %.not = icmp eq ptr %3, null
  br i1 %.not, label %4, label %20

4:                                                ; preds = %1
  call void @_ZNSt7__cxx1112basic_stringIcSt11char_traitsIcESaIcEEC1Ev(ptr noundef nonnull align 8 dereferenceable(32) %2) #16
  %5 = call i32 (ptr, i64, ptr, ...) @snprintf(ptr noundef null, i64 noundef 0, ptr noundef nonnull @.str.3, ptr noundef nonnull @.str.9) #16
  %6 = add nsw i32 %5, 1
  %7 = sext i32 %6 to i64
  invoke void @_ZNSt7__cxx1112basic_stringIcSt11char_traitsIcESaIcEE6resizeEm(ptr noundef nonnull align 8 dereferenceable(32) %2, i64 noundef %7)
          to label %8 unwind label %15

8:                                                ; preds = %4
  %9 = invoke noundef nonnull align 1 dereferenceable(1) ptr @_ZNSt7__cxx1112basic_stringIcSt11char_traitsIcESaIcEEixEm(ptr noundef nonnull align 8 dereferenceable(32) %2, i64 noundef 0)
          to label %10 unwind label %15

10:                                               ; preds = %8
  %11 = call noundef i64 @_ZNKSt7__cxx1112basic_stringIcSt11char_traitsIcESaIcEE4sizeEv(ptr noundef nonnull align 8 dereferenceable(32) %2) #16
  %12 = call i32 (ptr, i64, ptr, ...) @snprintf(ptr noundef nonnull %9, i64 noundef %11, ptr noundef nonnull @.str.3, ptr noundef nonnull @.str.9) #16
  %13 = call ptr @__cxa_allocate_exception(i64 40) #16
  invoke void @_ZN5faiss14FaissExceptionC1ERKNSt7__cxx1112basic_stringIcSt11char_traitsIcESaIcEEEPKcSA_i(ptr noundef nonnull align 8 dereferenceable(40) %13, ptr noundef nonnull align 8 dereferenceable(32) %2, ptr noundef nonnull @__PRETTY_FUNCTION__._ZN5faiss6ivflib17extract_index_ivfEPKNS_5IndexE, ptr noundef nonnull @.str.2, i32 noundef 93)
          to label %14 unwind label %17

14:                                               ; preds = %10
  invoke void @__cxa_throw(ptr nonnull %13, ptr nonnull @_ZTIN5faiss14FaissExceptionE, ptr nonnull @_ZN5faiss14FaissExceptionD2Ev) #22
          to label %21 unwind label %15

15:                                               ; preds = %14, %8, %4
  %16 = landingpad { ptr, i32 }
          cleanup
  br label %19

17:                                               ; preds = %10
  %18 = landingpad { ptr, i32 }
          cleanup
  call void @__cxa_free_exception(ptr %13) #16
  br label %19

19:                                               ; preds = %17, %15
  %.pn = phi { ptr, i32 } [ %16, %15 ], [ %18, %17 ]
  call void @_ZNSt7__cxx1112basic_stringIcSt11char_traitsIcESaIcEED1Ev(ptr noundef nonnull align 8 dereferenceable(32) %2) #16
  resume { ptr, i32 } %.pn

20:                                               ; preds = %1
  ret ptr %3

21:                                               ; preds = %14
  unreachable
}